target datalayout = "e-m:e-p270:32:32-p271:32:32-p272:64:64-i64:64-i128:128-f80:128-n8:16:32:64-S128"
target triple = "x86_64-pc-linux-gnu"

%class.EditPluginContainer = type { %"class.std::vector.16" }
%"class.std::vector.16" = type { %"struct.std::_Vector_base.17" }
%"struct.std::_Vector_base.17" = type { %"struct.std::_Vector_base<EditPlugin *, std::allocator<EditPlugin *>>::_Vector_impl" }
%"struct.std::_Vector_base<EditPlugin *, std::allocator<EditPlugin *>>::_Vector_impl" = type { %"struct.std::_Vector_base<EditPlugin *, std::allocator<EditPlugin *>>::_Vector_impl_data" }
%"struct.std::_Vector_base<EditPlugin *, std::allocator<EditPlugin *>>::_Vector_impl_data" = type { ptr, ptr, ptr }
%"class.__gnu_cxx::__normal_iterator.22" = type { ptr }
%"class.EditPluginContainer::EditPluginFactoryRangeIterator" = type <{ ptr, i8, [7 x i8] }>
%class.ConstPluginIterator = type <{ ptr, %"class.__gnu_cxx::__normal_iterator.22", i8, [7 x i8] }>
%class.MeshLabPlugin = type { ptr, i8, %class.QFileInfo }
%class.QFileInfo = type { %class.QSharedDataPointer }
%class.QSharedDataPointer = type { ptr }

; Function Attrs: mustprogress nounwind uwtable
define linkonce_odr ptr @_ZN9__gnu_cxx17__normal_iteratorIPKP10EditPluginSt6vectorIS2_SaIS2_EEEppEi(ptr noundef nonnull align 8 dereferenceable(8) %0, i32 noundef %1) #4 comdat align 2 {
  %3 = alloca %"class.__gnu_cxx::__normal_iterator.22", align 8
  %4 = alloca ptr, align 8
  %5 = alloca i32, align 4
  %6 = alloca ptr, align 8
  store ptr %0, ptr %4, align 8
  store i32 %1, ptr %5, align 4
  %7 = load ptr, ptr %4, align 8
  %8 = getelementptr inbounds %"class.__gnu_cxx::__normal_iterator.22", ptr %7, i32 0, i32 0
  %9 = load ptr, ptr %8, align 8
  %10 = getelementptr inbounds ptr, ptr %9, i32 1
  store ptr %10, ptr %8, align 8
  store ptr %9, ptr %6, align 8
  call void @_ZN9__gnu_cxx17__normal_iteratorIPKP10EditPluginSt6vectorIS2_SaIS2_EEEC2ERKS4_(ptr noundef nonnull align 8 dereferenceable(8) %3, ptr noundef nonnull align 8 dereferenceable(8) %6) #3
  %11 = getelementptr inbounds %"class.__gnu_cxx::__normal_iterator.22", ptr %3, i32 0, i32 0
  %12 = load ptr, ptr %11, align 8
  ret ptr %12
}

; Function Attrs: mustprogress nounwind uwtable
define linkonce_odr noundef nonnull align 8 dereferenceable(8) ptr @_ZNK9__gnu_cxx17__normal_iteratorIPKP10EditPluginSt6vectorIS2_SaIS2_EEE4baseEv(ptr noundef nonnull align 8 dereferenceable(8) %0) #4 comdat align 2 {
  %2 = alloca ptr, align 8
  store ptr %0, ptr %2, align 8
  %3 = load ptr, ptr %2, align 8
  %4 = getelementptr inbounds %"class.__gnu_cxx::__normal_iterator.22", ptr %3, i32 0, i32 0
  ret ptr %4
}

; Function Attrs: mustprogress nounwind uwtable
define linkonce_odr noundef nonnull align 8 dereferenceable(17) ptr @_ZN19ConstPluginIteratorI10EditPluginEppEv(ptr noundef nonnull align 8 dereferenceable(17) %0) #4 comdat align 2 {
  %2 = alloca ptr, align 8
  %3 = alloca %"class.__gnu_cxx::__normal_iterator.22", align 8
  %4 = alloca %"class.__gnu_cxx::__normal_iterator.22", align 8
  %5 = alloca %"class.__gnu_cxx::__normal_iterator.22", align 8
  store ptr %0, ptr %2, align 8
  %6 = load ptr, ptr %2, align 8
  %7 = getelementptr inbounds %class.ConstPluginIterator, ptr %6, i32 0, i32 2
  %8 = load i8, ptr %7, align 8
  %9 = trunc i8 %8 to i1
  br i1 %9, label %10, label %14

10:                                               ; preds = %1
  %11 = getelementptr inbounds %class.ConstPluginIterator, ptr %6, i32 0, i32 1
  %12 = call ptr @_ZN9__gnu_cxx17__normal_iteratorIPKP10EditPluginSt6vectorIS2_SaIS2_EEEppEi(ptr noundef nonnull align 8 dereferenceable(8) %11, i32 noundef 0) #3
  %13 = getelementptr inbounds %"class.__gnu_cxx::__normal_iterator.22", ptr %3, i32 0, i32 0
  store ptr %12, ptr %13, align 8
  br label %35

14:                                               ; preds = %1
  br label %15

15:                                               ; preds = %32, %14
  %16 = getelementptr inbounds %class.ConstPluginIterator, ptr %6, i32 0, i32 1
  %17 = call ptr @_ZN9__gnu_cxx17__normal_iteratorIPKP10EditPluginSt6vectorIS2_SaIS2_EEEppEi(ptr noundef nonnull align 8 dereferenceable(8) %16, i32 noundef 0) #3
  %18 = getelementptr inbounds %"class.__gnu_cxx::__normal_iterator.22", ptr %4, i32 0, i32 0
  store ptr %17, ptr %18, align 8
  br label %19

19:                                               ; preds = %15
  %20 = getelementptr inbounds %class.ConstPluginIterator, ptr %6, i32 0, i32 1
  %21 = getelementptr inbounds %class.ConstPluginIterator, ptr %6, i32 0, i32 0
  %22 = load ptr, ptr %21, align 8
  %23 = call ptr @_ZNKSt6vectorIP10EditPluginSaIS1_EE3endEv(ptr noundef nonnull align 8 dereferenceable(24) %22) #3
  %24 = getelementptr inbounds %"class.__gnu_cxx::__normal_iterator.22", ptr %5, i32 0, i32 0
  store ptr %23, ptr %24, align 8
  %25 = call noundef zeroext i1 @_ZN9__gnu_cxxneIPKP10EditPluginSt6vectorIS2_SaIS2_EEEEbRKNS_17__normal_iteratorIT_T0_EESD_(ptr noundef nonnull align 8 dereferenceable(8) %20, ptr noundef nonnull align 8 dereferenceable(8) %5) #3
  br i1 %25, label %26, label %32

26:                                               ; preds = %19
  %27 = getelementptr inbounds %class.ConstPluginIterator, ptr %6, i32 0, i32 1
  %28 = call noundef nonnull align 8 dereferenceable(8) ptr @_ZNK9__gnu_cxx17__normal_iteratorIPKP10EditPluginSt6vectorIS2_SaIS2_EEEdeEv(ptr noundef nonnull align 8 dereferenceable(8) %27) #3
  %29 = load ptr, ptr %28, align 8
  %30 = call noundef zeroext i1 @_ZNK13MeshLabPlugin9isEnabledEv(ptr noundef nonnull align 8 dereferenceable(24) %29)
  %31 = xor i1 %30, true
  br label %32

32:                                               ; preds = %26, %19
  %33 = phi i1 [ false, %19 ], [ %31, %26 ]
  br i1 %33, label %15, label %34, !llvm.loop !12

34:                                               ; preds = %32
  br label %35

35:                                               ; preds = %34, %10
  ret ptr %6
}

; Function Attrs: mustprogress nounwind uwtable
define linkonce_odr noundef zeroext i1 @_ZNK13MeshLabPlugin9isEnabledEv(ptr noundef nonnull align 8 dereferenceable(24) %0) #4 comdat align 2 {
  %2 = alloca ptr, align 8
  store ptr %0, ptr %2, align 8
  %3 = load ptr, ptr %2, align 8
  %4 = getelementptr inbounds %class.MeshLabPlugin, ptr %3, i32 0, i32 1
  %5 = load i8, ptr %4, align 8
  %6 = trunc i8 %5 to i1
  ret i1 %6
}

; Function Attrs: mustprogress nounwind uwtable
define linkonce_odr noundef nonnull align 8 dereferenceable(8) ptr @_ZNK9__gnu_cxx17__normal_iteratorIPKP10EditPluginSt6vectorIS2_SaIS2_EEEdeEv(ptr noundef nonnull align 8 dereferenceable(8) %0) #4 comdat align 2 {
  %2 = alloca ptr, align 8
  store ptr %0, ptr %2, align 8
  %3 = load ptr, ptr %2, align 8
  %4 = getelementptr inbounds %"class.__gnu_cxx::__normal_iterator.22", ptr %3, i32 0, i32 0
  %5 = load ptr, ptr %4, align 8
  ret ptr %5
}

; Function Attrs: mustprogress nounwind uwtable
define linkonce_odr noundef zeroext i1 @_ZN9__gnu_cxxneIPKP10EditPluginSt6vectorIS2_SaIS2_EEEEbRKNS_17__normal_iteratorIT_T0_EESD_(ptr noundef nonnull align 8 dereferenceable(8) %0, ptr noundef nonnull align 8 dereferenceable(8) %1) #4 comdat {
  %3 = alloca ptr, align 8
  %4 = alloca ptr, align 8
  store ptr %0, ptr %3, align 8
  store ptr %1, ptr %4, align 8
  %5 = load ptr, ptr %3, align 8
  %6 = call noundef nonnull align 8 dereferenceable(8) ptr @_ZNK9__gnu_cxx17__normal_iteratorIPKP10EditPluginSt6vectorIS2_SaIS2_EEE4baseEv(ptr noundef nonnull align 8 dereferenceable(8) %5) #3
  %7 = load ptr, ptr %6, align 8
  %8 = load ptr, ptr %4, align 8
  %9 = call noundef nonnull align 8 dereferenceable(8) ptr @_ZNK9__gnu_cxx17__normal_iteratorIPKP10EditPluginSt6vectorIS2_SaIS2_EEE4baseEv(ptr noundef nonnull align 8 dereferenceable(8) %8) #3
  %10 = load ptr, ptr %9, align 8
  %11 = icmp ne ptr %7, %10
  ret i1 %11
}

; Function Attrs: mustprogress nounwind uwtable
define linkonce_odr ptr @_ZNKSt6vectorIP10EditPluginSaIS1_EE3endEv(ptr noundef nonnull align 8 dereferenceable(24) %0) #4 comdat align 2 {
  %2 = alloca %"class.__gnu_cxx::__normal_iterator.22", align 8
  %3 = alloca ptr, align 8
  store ptr %0, ptr %3, align 8
  %4 = load ptr, ptr %3, align 8
  %5 = getelementptr inbounds %"struct.std::_Vector_base.17", ptr %4, i32 0, i32 0
  %6 = getelementptr inbounds %"struct.std::_Vector_base<EditPlugin *, std::allocator<EditPlugin *>>::_Vector_impl_data", ptr %5, i32 0, i32 1
  call void @_ZN9__gnu_cxx17__normal_iteratorIPKP10EditPluginSt6vectorIS2_SaIS2_EEEC2ERKS4_(ptr noundef nonnull align 8 dereferenceable(8) %2, ptr noundef nonnull align 8 dereferenceable(8) %6) #3
  %7 = getelementptr inbounds %"class.__gnu_cxx::__normal_iterator.22", ptr %2, i32 0, i32 0
  %8 = load ptr, ptr %7, align 8
  ret ptr %8
}

; Function Attrs: mustprogress nounwind uwtable
define linkonce_odr void @_ZN9__gnu_cxx17__normal_iteratorIPKP10EditPluginSt6vectorIS2_SaIS2_EEEC2ERKS4_(ptr noundef nonnull align 8 dereferenceable(8) %0, ptr noundef nonnull align 8 dereferenceable(8) %1) unnamed_addr #4 comdat align 2 {
  %3 = alloca ptr, align 8
  %4 = alloca ptr, align 8
  store ptr %0, ptr %3, align 8
  store ptr %1, ptr %4, align 8
  %5 = load ptr, ptr %3, align 8
  %6 = getelementptr inbounds %"class.__gnu_cxx::__normal_iterator.22", ptr %5, i32 0, i32 0
  %7 = load ptr, ptr %4, align 8
  %8 = load ptr, ptr %7, align 8
  store ptr %8, ptr %6, align 8
  ret void
}

; Function Attrs: mustprogress uwtable
define linkonce_odr void @_ZN19ConstPluginIteratorI10EditPluginEC2ERKSt6vectorIPS0_SaIS3_EERKN9__gnu_cxx17__normal_iteratorIPKS3_S5_EEb(ptr noundef nonnull align 8 dereferenceable(17) %0, ptr noundef nonnull align 8 dereferenceable(24) %1, ptr noundef nonnull align 8 dereferenceable(8) %2, i1 noundef zeroext %3) unnamed_addr #5 comdat align 2 {
  %5 = alloca ptr, align 8
  %6 = alloca ptr, align 8
  %7 = alloca ptr, align 8
  %8 = alloca i8, align 1
  %9 = alloca %"class.__gnu_cxx::__normal_iterator.22", align 8
  store ptr %0, ptr %5, align 8
  store ptr %1, ptr %6, align 8
  store ptr %2, ptr %7, align 8
  %10 = zext i1 %3 to i8
  store i8 %10, ptr %8, align 1
  %11 = load ptr, ptr %5, align 8
  %12 = getelementptr inbounds %class.ConstPluginIterator, ptr %11, i32 0, i32 0
  %13 = load ptr, ptr %6, align 8
  store ptr %13, ptr %12, align 8
  %14 = getelementptr inbounds %class.ConstPluginIterator, ptr %11, i32 0, i32 1
  %15 = load ptr, ptr %7, align 8
  call void @llvm.memcpy.p0.p0.i64(ptr align 8 %14, ptr align 8 %15, i64 8, i1 false)
  %16 = getelementptr inbounds %class.ConstPluginIterator, ptr %11, i32 0, i32 2
  %17 = load i8, ptr %8, align 1
  %18 = trunc i8 %17 to i1
  %19 = zext i1 %18 to i8
  store i8 %19, ptr %16, align 8
  %20 = getelementptr inbounds %class.ConstPluginIterator, ptr %11, i32 0, i32 1
  %21 = load ptr, ptr %6, align 8
  %22 = call ptr @_ZNKSt6vectorIP10EditPluginSaIS1_EE3endEv(ptr noundef nonnull align 8 dereferenceable(24) %21) #3
  %23 = getelementptr inbounds %"class.__gnu_cxx::__normal_iterator.22", ptr %9, i32 0, i32 0
  store ptr %22, ptr %23, align 8
  %24 = call noundef zeroext i1 @_ZN9__gnu_cxxneIPKP10EditPluginSt6vectorIS2_SaIS2_EEEEbRKNS_17__normal_iteratorIT_T0_EESD_(ptr noundef nonnull align 8 dereferenceable(8) %20, ptr noundef nonnull align 8 dereferenceable(8) %9) #3
  br i1 %24, label %25, label %34

25:                                               ; preds = %4
  %26 = load i8, ptr %8, align 1
  %27 = trunc i8 %26 to i1
  br i1 %27, label %34, label %28

28:                                               ; preds = %25
  %29 = getelementptr inbounds %class.ConstPluginIterator, ptr %11, i32 0, i32 1
  %30 = call noundef nonnull align 8 dereferenceable(8) ptr @_ZNK9__gnu_cxx17__normal_iteratorIPKP10EditPluginSt6vectorIS2_SaIS2_EEEdeEv(ptr noundef nonnull align 8 dereferenceable(8) %29) #3
  %31 = load ptr, ptr %30, align 8
  %32 = call noundef zeroext i1 @_ZNK13MeshLabPlugin9isEnabledEv(ptr noundef nonnull align 8 dereferenceable(24) %31)
  %33 = xor i1 %32, true
  br label %34

34:                                               ; preds = %28, %25, %4
  %35 = phi i1 [ false, %25 ], [ false, %4 ], [ %33, %28 ]
  br i1 %35, label %36, label %38

36:                                               ; preds = %34
  %37 = call noundef nonnull align 8 dereferenceable(17) ptr @_ZN19ConstPluginIteratorI10EditPluginEppEv(ptr noundef nonnull align 8 dereferenceable(17) %11)
  br label %38

38:                                               ; preds = %36, %34
  ret void
}

; Function Attrs: mustprogress nounwind uwtable
define linkonce_odr ptr @_ZNKSt6vectorIP10EditPluginSaIS1_EE5beginEv(ptr noundef nonnull align 8 dereferenceable(24) %0) #4 comdat align 2 {
  %2 = alloca %"class.__gnu_cxx::__normal_iterator.22", align 8
  %3 = alloca ptr, align 8
  store ptr %0, ptr %3, align 8
  %4 = load ptr, ptr %3, align 8
  %5 = getelementptr inbounds %"struct.std::_Vector_base.17", ptr %4, i32 0, i32 0
  %6 = getelementptr inbounds %"struct.std::_Vector_base<EditPlugin *, std::allocator<EditPlugin *>>::_Vector_impl_data", ptr %5, i32 0, i32 0
  call void @_ZN9__gnu_cxx17__normal_iteratorIPKP10EditPluginSt6vectorIS2_SaIS2_EEEC2ERKS4_(ptr noundef nonnull align 8 dereferenceable(8) %2, ptr noundef nonnull align 8 dereferenceable(8) %6) #3
  %7 = getelementptr inbounds %"class.__gnu_cxx::__normal_iterator.22", ptr %2, i32 0, i32 0
  %8 = load ptr, ptr %7, align 8
  ret ptr %8
}

; Function Attrs: mustprogress uwtable
define void @_ZN19EditPluginContainer30EditPluginFactoryRangeIterator5beginEv(ptr dead_on_unwind noalias writable sret(%class.ConstPluginIterator) align 8 %0, ptr noundef nonnull align 8 dereferenceable(9) %1) #5 align 2 {
  %3 = alloca ptr, align 8
  %4 = alloca %"class.__gnu_cxx::__normal_iterator.22", align 8
  store ptr %1, ptr %3, align 8
  %5 = load ptr, ptr %3, align 8
  %6 = getelementptr inbounds %"class.EditPluginContainer::EditPluginFactoryRangeIterator", ptr %5, i32 0, i32 0
  %7 = load ptr, ptr %6, align 8
  %8 = getelementptr inbounds %class.EditPluginContainer, ptr %7, i32 0, i32 0
  %9 = getelementptr inbounds %"class.EditPluginContainer::EditPluginFactoryRangeIterator", ptr %5, i32 0, i32 0
  %10 = load ptr, ptr %9, align 8
  %11 = getelementptr inbounds %class.EditPluginContainer, ptr %10, i32 0, i32 0
  %12 = call ptr @_ZNKSt6vectorIP10EditPluginSaIS1_EE5beginEv(ptr noundef nonnull align 8 dereferenceable(24) %11) #3
  %13 = getelementptr inbounds %"class.__gnu_cxx::__normal_iterator.22", ptr %4, i32 0, i32 0
  store ptr %12, ptr %13, align 8
  %14 = getelementptr inbounds %"class.EditPluginContainer::EditPluginFactoryRangeIterator", ptr %5, i32 0, i32 1
  %15 = load i8, ptr %14, align 8
  %16 = trunc i8 %15 to i1
  call void @_ZN19ConstPluginIteratorI10EditPluginEC2ERKSt6vectorIPS0_SaIS3_EERKN9__gnu_cxx17__normal_iteratorIPKS3_S5_EEb(ptr noundef nonnull align 8 dereferenceable(17) %0, ptr noundef nonnull align 8 dereferenceable(24) %8, ptr noundef nonnull align 8 dereferenceable(8) %4, i1 noundef zeroext %16)
  ret void
}