; Function Attrs: mustprogress nofree norecurse nosync nounwind memory(read, argmem: readwrite, inaccessiblemem: none) uwtable
define void @_ZN19EditPluginContainer30EditPluginFactoryRangeIterator5beginEv(ptr dead_on_unwind noalias writable writeonly sret(%class.ConstPluginIterator) align 8 captures(none) initializes((0, 17)) %0, ptr noundef nonnull readonly align 8 captures(none) dereferenceable(9) %1) local_unnamed_addr #15 align 2 {
  %3 = load ptr, ptr %1, align 8
  %4 = load ptr, ptr %3, align 8
  %5 = getelementptr inbounds nuw i8, ptr %1, i64 8
  %6 = load i8, ptr %5, align 8
  %7 = trunc i8 %6 to i1
  %8 = and i8 %6, 1
  store ptr %3, ptr %0, align 8
  %9 = getelementptr inbounds nuw i8, ptr %0, i64 8
  %10 = ptrtoint ptr %4 to i64
  store i64 %10, ptr %9, align 8
  %11 = getelementptr inbounds nuw i8, ptr %0, i64 16
  store i8 %8, ptr %11, align 8
  %12 = getelementptr inbounds nuw i8, ptr %3, i64 8
  %13 = load ptr, ptr %12, align 8
  %.not5.i = icmp eq ptr %13, %4
  %brmerge.i = or i1 %.not5.i, %7
  br i1 %brmerge.i, label %_ZN19ConstPluginIteratorI10EditPluginEC2ERKSt6vectorIPS0_SaIS3_EERKN9__gnu_cxx17__normal_iteratorIPKS3_S5_EEb.exit, label %14

14:                                               ; preds = %2
  %15 = load ptr, ptr %4, align 8
  %16 = getelementptr inbounds nuw i8, ptr %15, i64 8
  %17 = load i8, ptr %16, align 8
  %18 = trunc i8 %17 to i1
  br i1 %18, label %_ZN19ConstPluginIteratorI10EditPluginEC2ERKSt6vectorIPS0_SaIS3_EERKN9__gnu_cxx17__normal_iteratorIPKS3_S5_EEb.exit, label %.preheader.i.i

.preheader.i.i:                                   ; preds = %14, %21
  %19 = phi ptr [ %20, %21 ], [ %4, %14 ]
  %20 = getelementptr inbounds nuw i8, ptr %19, i64 8
  %.not.i.i = icmp eq ptr %20, %13
  br i1 %.not.i.i, label %_ZN19ConstPluginIteratorI10EditPluginEC2ERKSt6vectorIPS0_SaIS3_EERKN9__gnu_cxx17__normal_iteratorIPKS3_S5_EEb.exit.loopexit, label %21

21:                                               ; preds = %.preheader.i.i
  %22 = load ptr, ptr %20, align 8
  %23 = getelementptr inbounds nuw i8, ptr %22, i64 8
  %24 = load i8, ptr %23, align 8
  %25 = trunc i8 %24 to i1
  br i1 %25, label %_ZN19ConstPluginIteratorI10EditPluginEC2ERKSt6vectorIPS0_SaIS3_EERKN9__gnu_cxx17__normal_iteratorIPKS3_S5_EEb.exit.loopexit, label %.preheader.i.i, !llvm.loop !11

_ZN19ConstPluginIteratorI10EditPluginEC2ERKSt6vectorIPS0_SaIS3_EERKN9__gnu_cxx17__normal_iteratorIPKS3_S5_EEb.exit.loopexit: ; preds = %21, %.preheader.i.i
  store ptr %20, ptr %9, align 8
  br label %_ZN19ConstPluginIteratorI10EditPluginEC2ERKSt6vectorIPS0_SaIS3_EERKN9__gnu_cxx17__normal_iteratorIPKS3_S5_EEb.exit

_ZN19ConstPluginIteratorI10EditPluginEC2ERKSt6vectorIPS0_SaIS3_EERKN9__gnu_cxx17__normal_iteratorIPKS3_S5_EEb.exit: ; preds = %_ZN19ConstPluginIteratorI10EditPluginEC2ERKSt6vectorIPS0_SaIS3_EERKN9__gnu_cxx17__normal_iteratorIPKS3_S5_EEb.exit.loopexit, %2, %14
  ret void
}